target datalayout = "e-m:e-p270:32:32-p271:32:32-p272:64:64-i64:64-i128:128-f80:128-n8:16:32:64-S128"
target triple = "x86_64-pc-linux-gnu"

%struct.Scheduler = type { ptr, ptr, i32, ptr, i32, i32, %union.pthread_mutex_t, i32, i32, %union.pthread_mutex_t, %union.pthread_cond_t, ptr, i32, ptr, i32, ptr, i32, ptr, i32, ptr, i32, i32, i32, %union.pthread_mutex_t, i64 }
%union.pthread_cond_t = type { %struct.__pthread_cond_s }
%struct.__pthread_cond_s = type { %union.__atomic_wide_counter, %union.__atomic_wide_counter, [2 x i32], [2 x i32], i32, i32, [2 x i32] }
%union.__atomic_wide_counter = type { i64 }
%union.pthread_mutex_t = type { %struct.__pthread_mutex_s }
%struct.__pthread_mutex_s = type { i32, i32, i32, i32, i32, i16, i16, %struct.__pthread_internal_list }
%struct.__pthread_internal_list = type { ptr, ptr }
%struct.SchTask = type { ptr, %struct.SchedulerNode, ptr, ptr, i64, i32 }
%struct.SchedulerNode = type { i32, i32, i32 }
%struct.SchDec = type { ptr, %struct.SchedulerNode, ptr, i32, %struct.SchTask, ptr, ptr, i32, ptr }

@.str = private unnamed_addr constant [30 x i8] c"Assertion %s failed at %s:%d\0A\00", align 1
@.str.2 = private unnamed_addr constant [23 x i8] c"fftools/ffmpeg_sched.c\00", align 1
@.str.4 = private unnamed_addr constant [22 x i8] c"dec_idx < sch->nb_dec\00", align 1
@sch_dec_class = internal constant { ptr, ptr, ptr, i32, i32, i32, i32, ptr, ptr, ptr, ptr, i32, [4 x i8] } { ptr @.str.38, ptr null, ptr null, i32 3932772, i32 0, i32 72, i32 0, ptr null, ptr null, ptr null, ptr null, i32 0, [4 x i8] zeroinitializer }, align 8
@.str.40 = private unnamed_addr constant [16 x i8] c"queue_size == 8\00", align 1

; Function Attrs: nounwind uwtable
define internal i32 @queue_alloc(ptr noundef %0, i32 noundef %1, i32 noundef %2, i32 noundef %3) #0 {
  %5 = alloca i32, align 4
  %6 = alloca ptr, align 8
  %7 = alloca i32, align 4
  %8 = alloca i32, align 4
  %9 = alloca i32, align 4
  %10 = alloca ptr, align 8
  %11 = alloca i32, align 4
  store ptr %0, ptr %6, align 8, !tbaa !114
  store i32 %1, ptr %7, align 4, !tbaa !12
  store i32 %2, ptr %8, align 4, !tbaa !12
  store i32 %3, ptr %9, align 4, !tbaa !12
  call void @llvm.lifetime.start.p0(i64 8, ptr %10) #9
  %12 = load i32, ptr %8, align 4, !tbaa !12
  %13 = icmp ule i32 %12, 0
  br i1 %13, label %14, label %20

14:                                               ; preds = %4
  %15 = load i32, ptr %9, align 4, !tbaa !12
  %16 = icmp eq i32 %15, 1
  br i1 %16, label %17, label %18

17:                                               ; preds = %14
  store i32 8, ptr %8, align 4, !tbaa !12
  br label %19

18:                                               ; preds = %14
  store i32 8, ptr %8, align 4, !tbaa !12
  br label %19

19:                                               ; preds = %18, %17
  br label %20

20:                                               ; preds = %19, %4
  %21 = load i32, ptr %9, align 4, !tbaa !12
  %22 = icmp eq i32 %21, 1
  br i1 %22, label %23, label %31

23:                                               ; preds = %20
  br label %24

24:                                               ; preds = %23
  %25 = load i32, ptr %8, align 4, !tbaa !12
  %26 = icmp eq i32 %25, 8
  br i1 %26, label %28, label %27

27:                                               ; preds = %24
  call void (ptr, i32, ptr, ...) @av_log(ptr noundef null, i32 noundef 0, ptr noundef @.str, ptr noundef @.str.40, ptr noundef @.str.2, i32 noundef 392)
  call void @abort() #10
  unreachable

28:                                               ; preds = %24
  br label %29

29:                                               ; preds = %28
  br label %30

30:                                               ; preds = %29
  br label %31

31:                                               ; preds = %30, %20
  %32 = load i32, ptr %7, align 4, !tbaa !12
  %33 = load i32, ptr %8, align 4, !tbaa !12
  %34 = zext i32 %33 to i64
  %35 = load i32, ptr %9, align 4, !tbaa !12
  %36 = icmp eq i32 %35, 0
  %37 = select i1 %36, i32 1, i32 0
  %38 = call ptr @tq_alloc(i32 noundef %32, i64 noundef %34, i32 noundef %37)
  store ptr %38, ptr %10, align 8, !tbaa !116
  %39 = load ptr, ptr %10, align 8, !tbaa !116
  %40 = icmp ne ptr %39, null
  br i1 %40, label %42, label %41

41:                                               ; preds = %31
  store i32 -12, ptr %5, align 4
  store i32 1, ptr %11, align 4
  br label %45

42:                                               ; preds = %31
  %43 = load ptr, ptr %10, align 8, !tbaa !116
  %44 = load ptr, ptr %6, align 8, !tbaa !114
  store ptr %43, ptr %44, align 8, !tbaa !116
  store i32 0, ptr %5, align 4
  store i32 1, ptr %11, align 4
  br label %45

45:                                               ; preds = %42, %41
  call void @llvm.lifetime.end.p0(i64 8, ptr %10) #9
  %46 = load i32, ptr %5, align 4
  ret i32 %46
}

; Function Attrs: nounwind uwtable
define i32 @sch_add_dec_output(ptr noundef %0, i32 noundef %1) #0 {
  %3 = alloca i32, align 4
  %4 = alloca ptr, align 8
  %5 = alloca i32, align 4
  %6 = alloca ptr, align 8
  %7 = alloca i32, align 4
  %8 = alloca i32, align 4
  store ptr %0, ptr %4, align 8, !tbaa !10
  store i32 %1, ptr %5, align 4, !tbaa !12
  call void @llvm.lifetime.start.p0(i64 8, ptr %6) #9
  call void @llvm.lifetime.start.p0(i64 4, ptr %7) #9
  br label %9

9:                                                ; preds = %2
  %10 = load i32, ptr %5, align 4, !tbaa !12
  %11 = load ptr, ptr %4, align 8, !tbaa !10
  %12 = getelementptr inbounds nuw %struct.Scheduler, ptr %11, i32 0, i32 12
  %13 = load i32, ptr %12, align 8, !tbaa !56
  %14 = icmp ult i32 %10, %13
  br i1 %14, label %16, label %15

15:                                               ; preds = %9
  call void (ptr, i32, ptr, ...) @av_log(ptr noundef null, i32 noundef 0, ptr noundef @.str, ptr noundef @.str.4, ptr noundef @.str.2, i32 noundef 724)
  call void @abort() #10
  unreachable

16:                                               ; preds = %9
  br label %17

17:                                               ; preds = %16
  br label %18

18:                                               ; preds = %17
  %19 = load ptr, ptr %4, align 8, !tbaa !10
  %20 = getelementptr inbounds nuw %struct.Scheduler, ptr %19, i32 0, i32 11
  %21 = load ptr, ptr %20, align 8, !tbaa !57
  %22 = load i32, ptr %5, align 4, !tbaa !12
  %23 = zext i32 %22 to i64
  %24 = getelementptr inbounds nuw %struct.SchDec, ptr %21, i64 %23
  store ptr %24, ptr %6, align 8, !tbaa !58
  %25 = load ptr, ptr %6, align 8, !tbaa !58
  %26 = getelementptr inbounds nuw %struct.SchDec, ptr %25, i32 0, i32 2
  %27 = load ptr, ptr %6, align 8, !tbaa !58
  %28 = getelementptr inbounds nuw %struct.SchDec, ptr %27, i32 0, i32 3
  %29 = load ptr, ptr %6, align 8, !tbaa !58
  %30 = getelementptr inbounds nuw %struct.SchDec, ptr %29, i32 0, i32 3
  %31 = load i32, ptr %30, align 8, !tbaa !59
  %32 = add i32 %31, 1
  %33 = call i32 @grow_array(ptr noundef %26, i32 noundef 24, ptr noundef %28, i32 noundef %32)
  store i32 %33, ptr %7, align 4, !tbaa !12
  %34 = load i32, ptr %7, align 4, !tbaa !12
  %35 = icmp slt i32 %34, 0
  br i1 %35, label %36, label %38

36:                                               ; preds = %18
  %37 = load i32, ptr %7, align 4, !tbaa !12
  store i32 %37, ptr %3, align 4
  store i32 1, ptr %8, align 4
  br label %43

38:                                               ; preds = %18
  %39 = load ptr, ptr %6, align 8, !tbaa !58
  %40 = getelementptr inbounds nuw %struct.SchDec, ptr %39, i32 0, i32 3
  %41 = load i32, ptr %40, align 8, !tbaa !59
  %42 = sub i32 %41, 1
  store i32 %42, ptr %3, align 4
  store i32 1, ptr %8, align 4
  br label %43

43:                                               ; preds = %38, %36
  call void @llvm.lifetime.end.p0(i64 4, ptr %7) #9
  call void @llvm.lifetime.end.p0(i64 8, ptr %6) #9
  %44 = load i32, ptr %3, align 4
  ret i32 %44
}

; Function Attrs: nounwind uwtable
define internal void @task_init(ptr noundef %0, ptr noundef %1, i32 noundef %2, i32 noundef %3, ptr noundef %4, ptr noundef %5) #0 {
  %7 = alloca ptr, align 8
  %8 = alloca ptr, align 8
  %9 = alloca i32, align 4
  %10 = alloca i32, align 4
  %11 = alloca ptr, align 8
  %12 = alloca ptr, align 8
  store ptr %0, ptr %7, align 8, !tbaa !10
  store ptr %1, ptr %8, align 8, !tbaa !101
  store i32 %2, ptr %9, align 4, !tbaa !12
  store i32 %3, ptr %10, align 4, !tbaa !12
  store ptr %4, ptr %11, align 8, !tbaa !97
  store ptr %5, ptr %12, align 8, !tbaa !97
  %13 = load ptr, ptr %7, align 8, !tbaa !10
  %14 = load ptr, ptr %8, align 8, !tbaa !101
  %15 = getelementptr inbounds nuw %struct.SchTask, ptr %14, i32 0, i32 0
  store ptr %13, ptr %15, align 8, !tbaa !103
  %16 = load i32, ptr %9, align 4, !tbaa !12
  %17 = load ptr, ptr %8, align 8, !tbaa !101
  %18 = getelementptr inbounds nuw %struct.SchTask, ptr %17, i32 0, i32 1
  %19 = getelementptr inbounds nuw %struct.SchedulerNode, ptr %18, i32 0, i32 0
  store i32 %16, ptr %19, align 8, !tbaa !104
  %20 = load i32, ptr %10, align 4, !tbaa !12
  %21 = load ptr, ptr %8, align 8, !tbaa !101
  %22 = getelementptr inbounds nuw %struct.SchTask, ptr %21, i32 0, i32 1
  %23 = getelementptr inbounds nuw %struct.SchedulerNode, ptr %22, i32 0, i32 1
  store i32 %20, ptr %23, align 4, !tbaa !105
  %24 = load ptr, ptr %11, align 8, !tbaa !97
  %25 = load ptr, ptr %8, align 8, !tbaa !101
  %26 = getelementptr inbounds nuw %struct.SchTask, ptr %25, i32 0, i32 2
  store ptr %24, ptr %26, align 8, !tbaa !106
  %27 = load ptr, ptr %12, align 8, !tbaa !97
  %28 = load ptr, ptr %8, align 8, !tbaa !101
  %29 = getelementptr inbounds nuw %struct.SchTask, ptr %28, i32 0, i32 3
  store ptr %27, ptr %29, align 8, !tbaa !107
  ret void
}

; Function Attrs: nounwind uwtable
define i32 @sch_add_dec(ptr noundef %0, ptr noundef %1, ptr noundef %2, i32 noundef %3) #0 {
  %5 = alloca i32, align 4
  %6 = alloca ptr, align 8
  %7 = alloca ptr, align 8
  %8 = alloca ptr, align 8
  %9 = alloca i32, align 4
  %10 = alloca i32, align 4
  %11 = alloca ptr, align 8
  %12 = alloca i32, align 4
  %13 = alloca i32, align 4
  store ptr %0, ptr %6, align 8, !tbaa !10
  store ptr %1, ptr %7, align 8, !tbaa !97
  store ptr %2, ptr %8, align 8, !tbaa !97
  store i32 %3, ptr %9, align 4, !tbaa !12
  call void @llvm.lifetime.start.p0(i64 4, ptr %10) #9
  %14 = load ptr, ptr %6, align 8, !tbaa !10
  %15 = getelementptr inbounds nuw %struct.Scheduler, ptr %14, i32 0, i32 12
  %16 = load i32, ptr %15, align 8, !tbaa !56
  store i32 %16, ptr %10, align 4, !tbaa !12
  call void @llvm.lifetime.start.p0(i64 8, ptr %11) #9
  call void @llvm.lifetime.start.p0(i64 4, ptr %12) #9
  %17 = load ptr, ptr %6, align 8, !tbaa !10
  %18 = getelementptr inbounds nuw %struct.Scheduler, ptr %17, i32 0, i32 11
  %19 = load ptr, ptr %6, align 8, !tbaa !10
  %20 = getelementptr inbounds nuw %struct.Scheduler, ptr %19, i32 0, i32 12
  %21 = load ptr, ptr %6, align 8, !tbaa !10
  %22 = getelementptr inbounds nuw %struct.Scheduler, ptr %21, i32 0, i32 12
  %23 = load i32, ptr %22, align 8, !tbaa !56
  %24 = add i32 %23, 1
  %25 = call i32 @grow_array(ptr noundef %18, i32 noundef 128, ptr noundef %20, i32 noundef %24)
  store i32 %25, ptr %12, align 4, !tbaa !12
  %26 = load i32, ptr %12, align 4, !tbaa !12
  %27 = icmp slt i32 %26, 0
  br i1 %27, label %28, label %30

28:                                               ; preds = %4
  %29 = load i32, ptr %12, align 4, !tbaa !12
  store i32 %29, ptr %5, align 4
  store i32 1, ptr %13, align 4
  br label %83

30:                                               ; preds = %4
  %31 = load ptr, ptr %6, align 8, !tbaa !10
  %32 = getelementptr inbounds nuw %struct.Scheduler, ptr %31, i32 0, i32 11
  %33 = load ptr, ptr %32, align 8, !tbaa !57
  %34 = load i32, ptr %10, align 4, !tbaa !12
  %35 = zext i32 %34 to i64
  %36 = getelementptr inbounds nuw %struct.SchDec, ptr %33, i64 %35
  store ptr %36, ptr %11, align 8, !tbaa !58
  %37 = load ptr, ptr %6, align 8, !tbaa !10
  %38 = load ptr, ptr %11, align 8, !tbaa !58
  %39 = getelementptr inbounds nuw %struct.SchDec, ptr %38, i32 0, i32 4
  %40 = load i32, ptr %10, align 4, !tbaa !12
  %41 = load ptr, ptr %7, align 8, !tbaa !97
  %42 = load ptr, ptr %8, align 8, !tbaa !97
  call void @task_init(ptr noundef %37, ptr noundef %39, i32 noundef 3, i32 noundef %40, ptr noundef %41, ptr noundef %42)
  %43 = load ptr, ptr %11, align 8, !tbaa !58
  %44 = getelementptr inbounds nuw %struct.SchDec, ptr %43, i32 0, i32 0
  store ptr @sch_dec_class, ptr %44, align 8, !tbaa !112
  %45 = call ptr @av_frame_alloc()
  %46 = load ptr, ptr %11, align 8, !tbaa !58
  %47 = getelementptr inbounds nuw %struct.SchDec, ptr %46, i32 0, i32 8
  store ptr %45, ptr %47, align 8, !tbaa !113
  %48 = load ptr, ptr %11, align 8, !tbaa !58
  %49 = getelementptr inbounds nuw %struct.SchDec, ptr %48, i32 0, i32 8
  %50 = load ptr, ptr %49, align 8, !tbaa !113
  %51 = icmp ne ptr %50, null
  br i1 %51, label %53, label %52

52:                                               ; preds = %30
  store i32 -12, ptr %5, align 4
  store i32 1, ptr %13, align 4
  br label %83

53:                                               ; preds = %30
  %54 = load ptr, ptr %6, align 8, !tbaa !10
  %55 = load i32, ptr %10, align 4, !tbaa !12
  %56 = call i32 @sch_add_dec_output(ptr noundef %54, i32 noundef %55)
  store i32 %56, ptr %12, align 4, !tbaa !12
  %57 = load i32, ptr %12, align 4, !tbaa !12
  %58 = icmp slt i32 %57, 0
  br i1 %58, label %59, label %61

59:                                               ; preds = %53
  %60 = load i32, ptr %12, align 4, !tbaa !12
  store i32 %60, ptr %5, align 4
  store i32 1, ptr %13, align 4
  br label %83

61:                                               ; preds = %53
  %62 = load ptr, ptr %11, align 8, !tbaa !58
  %63 = getelementptr inbounds nuw %struct.SchDec, ptr %62, i32 0, i32 5
  %64 = call i32 @queue_alloc(ptr noundef %63, i32 noundef 1, i32 noundef 0, i32 noundef 0)
  store i32 %64, ptr %12, align 4, !tbaa !12
  %65 = load i32, ptr %12, align 4, !tbaa !12
  %66 = icmp slt i32 %65, 0
  br i1 %66, label %67, label %69

67:                                               ; preds = %61
  %68 = load i32, ptr %12, align 4, !tbaa !12
  store i32 %68, ptr %5, align 4
  store i32 1, ptr %13, align 4
  br label %83

69:                                               ; preds = %61
  %70 = load i32, ptr %9, align 4, !tbaa !12
  %71 = icmp ne i32 %70, 0
  br i1 %71, label %72, label %81

72:                                               ; preds = %69
  %73 = load ptr, ptr %11, align 8, !tbaa !58
  %74 = getelementptr inbounds nuw %struct.SchDec, ptr %73, i32 0, i32 6
  %75 = call i32 @av_thread_message_queue_alloc(ptr noundef %74, i32 noundef 1, i32 noundef 16)
  store i32 %75, ptr %12, align 4, !tbaa !12
  %76 = load i32, ptr %12, align 4, !tbaa !12
  %77 = icmp slt i32 %76, 0
  br i1 %77, label %78, label %80

78:                                               ; preds = %72
  %79 = load i32, ptr %12, align 4, !tbaa !12
  store i32 %79, ptr %5, align 4
  store i32 1, ptr %13, align 4
  br label %83

80:                                               ; preds = %72
  br label %81

81:                                               ; preds = %80, %69
  %82 = load i32, ptr %10, align 4, !tbaa !12
  store i32 %82, ptr %5, align 4
  store i32 1, ptr %13, align 4
  br label %83

83:                                               ; preds = %81, %78, %67, %59, %52, %28
  call void @llvm.lifetime.end.p0(i64 4, ptr %12) #9
  call void @llvm.lifetime.end.p0(i64 8, ptr %11) #9
  call void @llvm.lifetime.end.p0(i64 4, ptr %10) #9
  %84 = load i32, ptr %5, align 4
  ret i32 %84
}