; Function Attrs: nounwind uwtable
define i32 @sch_add_dec(ptr noundef %0, ptr noundef %1, ptr noundef %2, i32 noundef %3) local_unnamed_addr #0 {
  %5 = getelementptr inbounds nuw i8, ptr %0, i64 184
  %6 = load i32, ptr %5, align 8, !tbaa !34
  %7 = getelementptr inbounds nuw i8, ptr %0, i64 176
  %8 = add i32 %6, 1
  %9 = tail call i32 @grow_array(ptr noundef nonnull %7, i32 noundef 128, ptr noundef nonnull %5, i32 noundef %8) #9
  %10 = icmp slt i32 %9, 0
  br i1 %10, label %sch_add_dec_output.exit.thread, label %11

11:                                               ; preds = %4
  %12 = load ptr, ptr %7, align 8, !tbaa !50
  %13 = zext i32 %6 to i64
  %14 = getelementptr inbounds nuw %struct.SchDec, ptr %12, i64 %13
  %15 = getelementptr inbounds nuw i8, ptr %14, i64 40
  store ptr %0, ptr %15, align 8, !tbaa !89
  %16 = getelementptr inbounds nuw i8, ptr %14, i64 48
  store i32 3, ptr %16, align 8, !tbaa !90
  %17 = getelementptr inbounds nuw i8, ptr %14, i64 52
  store i32 %6, ptr %17, align 4, !tbaa !91
  %18 = getelementptr inbounds nuw i8, ptr %14, i64 64
  store ptr %1, ptr %18, align 8, !tbaa !92
  %19 = getelementptr inbounds nuw i8, ptr %14, i64 72
  store ptr %2, ptr %19, align 8, !tbaa !93
  store ptr @sch_dec_class, ptr %14, align 8, !tbaa !97
  %20 = tail call ptr @av_frame_alloc() #9
  %21 = getelementptr inbounds nuw i8, ptr %14, i64 120
  store ptr %20, ptr %21, align 8, !tbaa !98
  %.not = icmp eq ptr %20, null
  br i1 %.not, label %sch_add_dec_output.exit.thread, label %22

22:                                               ; preds = %11
  %23 = load i32, ptr %5, align 8, !tbaa !34
  %24 = icmp ult i32 %6, %23
  br i1 %24, label %26, label %25

25:                                               ; preds = %22
  tail call void (ptr, i32, ptr, ...) @av_log(ptr noundef null, i32 noundef 0, ptr noundef nonnull @.str, ptr noundef nonnull @.str.4, ptr noundef nonnull @.str.2, i32 noundef 724) #9
  tail call void @abort() #10
  unreachable

26:                                               ; preds = %22
  %27 = load ptr, ptr %7, align 8, !tbaa !50
  %28 = getelementptr inbounds nuw %struct.SchDec, ptr %27, i64 %13
  %29 = getelementptr inbounds nuw i8, ptr %28, i64 24
  %30 = getelementptr inbounds nuw i8, ptr %28, i64 32
  %31 = load i32, ptr %30, align 8, !tbaa !51
  %32 = add i32 %31, 1
  %33 = tail call i32 @grow_array(ptr noundef nonnull %29, i32 noundef 24, ptr noundef nonnull %30, i32 noundef %32) #9
  %34 = icmp slt i32 %33, 0
  br i1 %34, label %sch_add_dec_output.exit.thread, label %sch_add_dec_output.exit

sch_add_dec_output.exit:                          ; preds = %26
  %35 = load i32, ptr %30, align 8, !tbaa !51
  %36 = add i32 %35, -1
  %37 = icmp slt i32 %36, 0
  br i1 %37, label %sch_add_dec_output.exit.thread, label %38

38:                                               ; preds = %sch_add_dec_output.exit
  %39 = tail call ptr @tq_alloc(i32 noundef 1, i64 noundef 8, i32 noundef 1) #9
  %.not.i = icmp eq ptr %39, null
  br i1 %.not.i, label %sch_add_dec_output.exit.thread, label %40

40:                                               ; preds = %38
  %41 = getelementptr inbounds nuw i8, ptr %14, i64 96
  store ptr %39, ptr %41, align 8, !tbaa !99
  %.not32 = icmp eq i32 %3, 0
  br i1 %.not32, label %46, label %42

42:                                               ; preds = %40
  %43 = getelementptr inbounds nuw i8, ptr %14, i64 104
  %44 = tail call i32 @av_thread_message_queue_alloc(ptr noundef nonnull %43, i32 noundef 1, i32 noundef 16) #9
  %45 = icmp slt i32 %44, 0
  br i1 %45, label %sch_add_dec_output.exit.thread, label %46

46:                                               ; preds = %42, %40
  br label %sch_add_dec_output.exit.thread

sch_add_dec_output.exit.thread:                   ; preds = %38, %26, %42, %sch_add_dec_output.exit, %11, %4, %46
  %.0 = phi i32 [ %6, %46 ], [ %9, %4 ], [ -12, %11 ], [ %36, %sch_add_dec_output.exit ], [ %44, %42 ], [ %33, %26 ], [ -12, %38 ]
  ret i32 %.0
}